; Function Attrs: nounwind uwtable
define dso_local i64 @bpchar_larger(ptr noundef readonly captures(none) %0) local_unnamed_addr #0 {
  %2 = getelementptr inbounds nuw i8, ptr %0, i64 32
  %3 = load i64, ptr %2, align 8
  %4 = inttoptr i64 %3 to ptr
  %5 = tail call ptr @pg_detoast_datum_packed(ptr noundef %4) #13
  %6 = getelementptr inbounds nuw i8, ptr %0, i64 48
  %7 = load i64, ptr %6, align 8
  %8 = inttoptr i64 %7 to ptr
  %9 = tail call ptr @pg_detoast_datum_packed(ptr noundef %8) #13
  %10 = load i8, ptr %5, align 1
  %11 = zext i8 %10 to i32
  %12 = and i32 %11, 1
  %.not.i = icmp eq i32 %12, 0
  %13 = getelementptr inbounds nuw i8, ptr %5, i64 1
  %14 = icmp eq i8 %10, 1
  br i1 %14, label %15, label %23

15:                                               ; preds = %1
  %16 = load i8, ptr %13, align 1
  %17 = icmp eq i8 %16, 1
  %18 = and i8 %16, -2
  %19 = icmp eq i8 %18, 2
  %or.cond.i = or i1 %17, %19
  %20 = icmp eq i8 %16, 18
  %21 = select i1 %20, i32 16, i32 0
  %22 = select i1 %or.cond.i, i32 8, i32 %21
  br label %31

23:                                               ; preds = %1
  br i1 %.not.i, label %27, label %24

24:                                               ; preds = %23
  %25 = lshr i32 %11, 1
  %26 = add nsw i32 %25, -1
  br label %31

27:                                               ; preds = %23
  %28 = load i32, ptr %5, align 4
  %29 = lshr i32 %28, 2
  %30 = add nsw i32 %29, -4
  br label %31

31:                                               ; preds = %27, %24, %15
  %32 = phi i32 [ %22, %15 ], [ %26, %24 ], [ %30, %27 ]
  %33 = getelementptr inbounds nuw i8, ptr %5, i64 4
  %34 = select i1 %.not.i, ptr %33, ptr %13
  %35 = zext i32 %32 to i64
  %36 = tail call i32 @llvm.smin.i32(i32 %32, i32 0)
  br label %37

37:                                               ; preds = %40, %31
  %indvars.iv.i.i = phi i64 [ %indvars.iv.next.i.i, %40 ], [ %35, %31 ]
  %indvars.iv.next.i.i = add nsw i64 %indvars.iv.i.i, -1
  %38 = and i64 %indvars.iv.next.i.i, 2147483648
  %39 = icmp eq i64 %38, 0
  br i1 %39, label %40, label %bcTruelen.exit

40:                                               ; preds = %37
  %41 = and i64 %indvars.iv.next.i.i, 2147483647
  %42 = getelementptr inbounds nuw i8, ptr %34, i64 %41
  %43 = load i8, ptr %42, align 1
  %.not.i.i = icmp eq i8 %43, 32
  br i1 %.not.i.i, label %37, label %.split.loop.exit.i.i, !llvm.loop !12

.split.loop.exit.i.i:                             ; preds = %40
  %44 = trunc nuw i64 %indvars.iv.i.i to i32
  br label %bcTruelen.exit

bcTruelen.exit:                                   ; preds = %37, %.split.loop.exit.i.i
  %.0.in.lcssa.i.i = phi i32 [ %44, %.split.loop.exit.i.i ], [ %36, %37 ]
  %45 = load i8, ptr %9, align 1
  %46 = zext i8 %45 to i32
  %47 = and i32 %46, 1
  %.not.i17 = icmp eq i32 %47, 0
  %48 = getelementptr inbounds nuw i8, ptr %9, i64 1
  %49 = icmp eq i8 %45, 1
  br i1 %49, label %50, label %58

50:                                               ; preds = %bcTruelen.exit
  %51 = load i8, ptr %48, align 1
  %52 = icmp eq i8 %51, 1
  %53 = and i8 %51, -2
  %54 = icmp eq i8 %53, 2
  %or.cond.i23 = or i1 %52, %54
  %55 = icmp eq i8 %51, 18
  %56 = select i1 %55, i32 16, i32 0
  %57 = select i1 %or.cond.i23, i32 8, i32 %56
  br label %66

58:                                               ; preds = %bcTruelen.exit
  br i1 %.not.i17, label %62, label %59

59:                                               ; preds = %58
  %60 = lshr i32 %46, 1
  %61 = add nsw i32 %60, -1
  br label %66

62:                                               ; preds = %58
  %63 = load i32, ptr %9, align 4
  %64 = lshr i32 %63, 2
  %65 = add nsw i32 %64, -4
  br label %66

66:                                               ; preds = %62, %59, %50
  %67 = phi i32 [ %57, %50 ], [ %61, %59 ], [ %65, %62 ]
  %68 = getelementptr inbounds nuw i8, ptr %9, i64 4
  %69 = select i1 %.not.i17, ptr %68, ptr %48
  %70 = zext i32 %67 to i64
  %71 = tail call i32 @llvm.smin.i32(i32 %67, i32 0)
  br label %72

72:                                               ; preds = %75, %66
  %indvars.iv.i.i18 = phi i64 [ %indvars.iv.next.i.i19, %75 ], [ %70, %66 ]
  %indvars.iv.next.i.i19 = add nsw i64 %indvars.iv.i.i18, -1
  %73 = and i64 %indvars.iv.next.i.i19, 2147483648
  %74 = icmp eq i64 %73, 0
  br i1 %74, label %75, label %bcTruelen.exit24

75:                                               ; preds = %72
  %76 = and i64 %indvars.iv.next.i.i19, 2147483647
  %77 = getelementptr inbounds nuw i8, ptr %69, i64 %76
  %78 = load i8, ptr %77, align 1
  %.not.i.i21 = icmp eq i8 %78, 32
  br i1 %.not.i.i21, label %72, label %.split.loop.exit.i.i22, !llvm.loop !12

.split.loop.exit.i.i22:                           ; preds = %75
  %79 = trunc nuw i64 %indvars.iv.i.i18 to i32
  br label %bcTruelen.exit24

bcTruelen.exit24:                                 ; preds = %72, %.split.loop.exit.i.i22
  %.0.in.lcssa.i.i20 = phi i32 [ %79, %.split.loop.exit.i.i22 ], [ %71, %72 ]
  %80 = and i8 %10, 1
  %.not = icmp eq i8 %80, 0
  %.v = select i1 %.not, i64 4, i64 1
  %81 = getelementptr inbounds nuw i8, ptr %5, i64 %.v
  %82 = and i8 %45, 1
  %.not15 = icmp eq i8 %82, 0
  %.v16 = select i1 %.not15, i64 4, i64 1
  %83 = getelementptr inbounds nuw i8, ptr %9, i64 %.v16
  %84 = getelementptr inbounds nuw i8, ptr %0, i64 24
  %85 = load i32, ptr %84, align 8
  %86 = tail call i32 @varstr_cmp(ptr noundef nonnull %81, i32 noundef %.0.in.lcssa.i.i, ptr noundef nonnull %83, i32 noundef %.0.in.lcssa.i.i20, i32 noundef %85) #13
  %87 = icmp slt i32 %86, 0
  %88 = select i1 %87, ptr %9, ptr %5
  %89 = ptrtoint ptr %88 to i64
  ret i64 %89
}